; ModuleID = '16/431.c'
source_filename = "16/431.c"
target datalayout = "e-m:e-p270:32:32-p271:32:32-p272:64:64-i64:64-f80:128-n8:16:32:64-S128"
target triple = "x86_64-pc-linux-gnu"

@.str = private unnamed_addr constant [3 x i8] c"%d\00", align 1
@.str.1 = private unnamed_addr constant [4 x i8] c"%d\0A\00", align 1
@.str.2 = private unnamed_addr constant [6 x i8] c"%02d\0A\00", align 1
@.str.3 = private unnamed_addr constant [6 x i8] c"%03d\0A\00", align 1

; Function Attrs: noinline nounwind uwtable
define dso_local i32 @main() #0 {
  %1 = alloca i32, align 4
  %2 = alloca i32, align 4
  %3 = alloca i32, align 4
  %4 = alloca i32, align 4
  %5 = alloca i32, align 4
  %6 = alloca i32, align 4
  store i32 0, i32* %1, align 4
  %7 = call i32 (i8*, ...) @__isoc99_scanf(i8* getelementptr inbounds ([3 x i8], [3 x i8]* @.str, i64 0, i64 0), i32* %2)
  %8 = load i32, i32* %2, align 4
  %9 = icmp slt i32 %8, 10
  br i1 %9, label %10, label %13

10:                                               ; preds = %0
  %11 = load i32, i32* %2, align 4
  %12 = call i32 (i8*, ...) @printf(i8* getelementptr inbounds ([4 x i8], [4 x i8]* @.str.1, i64 0, i64 0), i32 %11)
  br label %96

13:                                               ; preds = %0
  %14 = load i32, i32* %2, align 4
  %15 = icmp slt i32 %14, 100
  br i1 %15, label %16, label %29

16:                                               ; preds = %13
  %17 = load i32, i32* %2, align 4
  %18 = srem i32 %17, 10
  store i32 %18, i32* %3, align 4
  %19 = load i32, i32* %2, align 4
  %20 = load i32, i32* %3, align 4
  %21 = sub nsw i32 %19, %20
  %22 = sdiv i32 %21, 10
  store i32 %22, i32* %4, align 4
  %23 = load i32, i32* %3, align 4
  %24 = mul nsw i32 %23, 10
  %25 = load i32, i32* %4, align 4
  %26 = add nsw i32 %24, %25
  store i32 %26, i32* %2, align 4
  %27 = load i32, i32* %2, align 4
  %28 = call i32 (i8*, ...) @printf(i8* getelementptr inbounds ([6 x i8], [6 x i8]* @.str.2, i64 0, i64 0), i32 %27)
  br label %95

29:                                               ; preds = %13
  %30 = load i32, i32* %2, align 4
  %31 = icmp slt i32 %30, 1000
  br i1 %31, label %32, label %56

32:                                               ; preds = %29
  %33 = load i32, i32* %2, align 4
  %34 = srem i32 %33, 10
  store i32 %34, i32* %3, align 4
  %35 = load i32, i32* %2, align 4
  %36 = load i32, i32* %3, align 4
  %37 = sub nsw i32 %35, %36
  %38 = srem i32 %37, 100
  %39 = sdiv i32 %38, 10
  store i32 %39, i32* %4, align 4
  %40 = load i32, i32* %2, align 4
  %41 = load i32, i32* %4, align 4
  %42 = mul nsw i32 %41, 10
  %43 = sub nsw i32 %40, %42
  %44 = load i32, i32* %3, align 4
  %45 = sub nsw i32 %43, %44
  %46 = sdiv i32 %45, 100
  store i32 %46, i32* %5, align 4
  %47 = load i32, i32* %3, align 4
  %48 = mul nsw i32 %47, 100
  %49 = load i32, i32* %4, align 4
  %50 = mul nsw i32 %49, 10
  %51 = add nsw i32 %48, %50
  %52 = load i32, i32* %5, align 4
  %53 = add nsw i32 %51, %52
  store i32 %53, i32* %2, align 4
  %54 = load i32, i32* %2, align 4
  %55 = call i32 (i8*, ...) @printf(i8* getelementptr inbounds ([6 x i8], [6 x i8]* @.str.3, i64 0, i64 0), i32 %54)
  br label %94

56:                                               ; preds = %29
  %57 = load i32, i32* %2, align 4
  %58 = srem i32 %57, 10
  store i32 %58, i32* %3, align 4
  %59 = load i32, i32* %2, align 4
  %60 = load i32, i32* %3, align 4
  %61 = sub nsw i32 %59, %60
  %62 = srem i32 %61, 100
  %63 = sdiv i32 %62, 10
  store i32 %63, i32* %4, align 4
  %64 = load i32, i32* %2, align 4
  %65 = load i32, i32* %4, align 4
  %66 = mul nsw i32 %65, 10
  %67 = sub nsw i32 %64, %66
  %68 = load i32, i32* %3, align 4
  %69 = sub nsw i32 %67, %68
  %70 = srem i32 %69, 1000
  %71 = sdiv i32 %70, 100
  store i32 %71, i32* %5, align 4
  %72 = load i32, i32* %2, align 4
  %73 = load i32, i32* %5, align 4
  %74 = mul nsw i32 %73, 100
  %75 = sub nsw i32 %72, %74
  %76 = load i32, i32* %4, align 4
  %77 = mul nsw i32 %76, 10
  %78 = sub nsw i32 %75, %77
  %79 = load i32, i32* %3, align 4
  %80 = sub nsw i32 %78, %79
  %81 = sdiv i32 %80, 1000
  store i32 %81, i32* %6, align 4
  %82 = load i32, i32* %3, align 4
  %83 = mul nsw i32 %82, 1000
  %84 = load i32, i32* %4, align 4
  %85 = mul nsw i32 %84, 100
  %86 = add nsw i32 %83, %85
  %87 = load i32, i32* %5, align 4
  %88 = mul nsw i32 %87, 10
  %89 = add nsw i32 %86, %88
  %90 = load i32, i32* %6, align 4
  %91 = add nsw i32 %89, %90
  store i32 %91, i32* %2, align 4
  %92 = load i32, i32* %2, align 4
  %93 = call i32 (i8*, ...) @printf(i8* getelementptr inbounds ([4 x i8], [4 x i8]* @.str.1, i64 0, i64 0), i32 %92)
  br label %94

94:                                               ; preds = %56, %32
  br label %95

95:                                               ; preds = %94, %16
  br label %96

96:                                               ; preds = %95, %10
  ret i32 0
}

declare dso_local i32 @__isoc99_scanf(i8*, ...) #1

declare dso_local i32 @printf(i8*, ...) #1


!llvm.module.flags = !{!0}
!llvm.ident = !{!1}

!0 = !{i32 1, !"wchar_size", i32 4}
!1 = !{!"clang version 10.0.0-4ubuntu1 "}
